     1                                 %line 1+1 ast8main.asm
     2                                 
     3                                 
     4                                 
     5                                 
     6                                 
     7                                 
     8                                 
     9                                 
    10                                 
    11                                 
    12                                 
    13                                 
    14                                 
    15                                 
    16                                 
    17                                 
    18                                 
    19                                 
    20                                 
    21                                 
    22                                 
    23                                 
    24                                 
    25                                 
    26                                 [section .data]
    27                                 
    28                                 
    29                                 
    30                                 
    31                                 TRUE equ 1
    32                                 FALSE equ 0
    33                                 
    34                                 EXIT_SUCCESS equ 0
    35                                 
    36                                 STDIN equ 0
    37                                 STDOUT equ 1
    38                                 STDERR equ 2
    39                                 
    40                                 SYS_read equ 0
    41                                 SYS_write equ 1
    42                                 SYS_open equ 2
    43                                 SYS_close equ 3
    44                                 SYS_fork equ 57
    45                                 SYS_exit equ 60
    46                                 SYS_creat equ 85
    47                                 SYS_time equ 201
    48                                 
    49                                 LF equ 10
    50                                 SPACE equ " "
    51                                 NULL equ 0
    52                                 ESC equ 27
    53                                 
    54                                 
    55                                 
    56                                 
    57 00000000 F90C00001B0000000A-    array1 dd 3321, 27, 10, 22, 61
    58 00000000 000000160000003D00-
    59 00000000 0000               
    60 00000014 0D0000005704000016-     dd 13, 1111, 22, 141, 216
    61 00000014 0000008D000000D800-
    62 00000014 0000               
    63 00000028 030000000C00000078-     dd 3, 12, 120, 19, 20
    64 00000028 000000130000001400-
    65 00000028 0000               
    66 0000003C 14000000930500000C-     dd 20, 1427, 12, 30, 33
    67 0000003C 0000001E0000002100-
    68 0000003C 0000               
    69 00000050 1E00000021000000AF-     dd 30, 33, 2223, 1141, 1160
    70 00000050 080000750400008804-
    71 00000050 0000               
    72 00000064 5A0000001200000096-     dd 90, 18, 150, 475, 23
    73 00000064 000000DB0100001700-
    74 00000064 0000               
    75 00000078 56040000710400002A-     dd 1110, 1137, 2346, 9999, 1212
    76 00000078 0900000F270000BC04-
    77 00000078 0000               
    78 0000008C 23000000               len1 dd 35
    79 00000090 00000000               min1 dd 0
    80 00000094 00000000               max1 dd 0
    81 00000098 00000000               med1 dd 0
    82 0000009C 00000000               sum1 dd 0
    83 000000A0 00000000               ave1 dd 0
    84 000000A4 00000000               estMed1 dd 0
    85 000000A8 00000000               skew1 dd 0
    86                                 
    87 000000AC 4B140000C8270000A1-    array2 dd 5195, 10184, 12193, 1172, 12111
    88 000000AC 2F0000940400004F2F-
    89 000000AC 0000               
    90 000000C0 522B00001701000029-     dd 11090, 279, 10281, 10087, 2185
    91 000000C0 280000672700008908-
    92 000000C0 0000               
    93 000000D4 A74E000068000000BD-     dd 20135, 104, 10173, 1122, 160
    94 000000D4 27000062040000A000-
    95 000000D4 0000               
    96 000000E8 F11700009923000083-     dd 6129, 9113, 1155, 1135, 1437
    97 000000E8 0400006F0400009D05-
    98 000000E8 0000               
    99 000000FC 47080000750400005F-     dd 2119, 1141, 2143, 1145, 3149
   100 000000FC 080000790400004D0C-
   101 000000FC 0000               
   102 00000110 97040000CE2B000079-     dd 1175, 11214, 121, 18195, 12349
   103 00000110 000000134700003D30-
   104 00000110 0000               
   105 00000124 273000002F76000039-     dd 12327, 30255, 15417, 11115, 11361
   106 00000124 3C00006B2B0000612C-
   107 00000124 0000               
   108 00000138 08520000C404000062-     dd 21000, 1220, 1122, 3124, 9026
   109 00000138 040000340C00004223-
   110 00000138 0000               
   111 0000014C 69040000B52F00007F-     dd 1129, 12213, 3455, 1535, 5437
   112 0000014C 0D0000FF0500003D15-
   113 0000014C 0000               
   114 00000160 E30200005501000017-     dd 739, 341, 11543, 10345, 10349
   115 00000160 2D0000692800006D28-
   116 00000160 0000               
   117 00000174 792F00000F0900005B-     dd 12153, 2319, 12123, 13217, 13459
   118 00000174 2F0000A13300009334-
   119 00000174 0000               
   120 00000188 37000000               len2 dd 55
   121 0000018C 00000000               min2 dd 0
   122 00000190 00000000               max2 dd 0
   123 00000194 00000000               med2 dd 0
   124 00000198 00000000               sum2 dd 0
   125 0000019C 00000000               ave2 dd 0
   126 000001A0 00000000               estMed2 dd 0
   127 000001A4 00000000               skew2 dd 0
   128                                 
   129 000001A8 792F00001F3000005B-    array3 dd 12153, 12319, 12123, 13217, 13459
   130 000001A8 2F0000A13300009334-
   131 000001A8 0000               
   132 000001BC 7F7D00001766000085-     dd 32127, 26135, 42117, 91115, 71161
   133 000001BC A40000EB630100F915-
   134 000001BC 0100               
   135 000001D0 A6C70000A0A00000C2-     dd 51110, 41120, 93122, 11124, 51226
   136 000001D0 6B0100742B00001AC8-
   137 000001D0 0000               
   138 000001E4 1166000009350100E3-     dd 26129, 79113, 61155, 31135, 31437
   139 000001E4 EE00009F790000CD7A-
   140 000001E4 0000               
   141 000001F8 B7190100C5C70000DF-     dd 72119, 51141, 82143, 51145, 73149
   142 000001F8 400100C9C70000BD1D-
   143 000001F8 0100               
   144 0000020C 518301001F5C010093-     dd 99153, 89119, 31123, 12117, 51259
   145 0000020C 790000552F00003BC8-
   146 0000020C 0000               
   147 00000220 BCEE0000EB630100B7-     dd 61116, 91115, 52151, 31167, 41169
   148 00000220 CB0000BF790000D1A0-
   149 00000220 0000               
   150 00000234 D8150100BA4A0000AC-     dd 71128, 19130, 73132, 61133, 41111
   151 00000234 1D0100CDEE000097A0-
   152 00000234 0000               
   153 00000248 728100009452000086-     dd 33138, 21140, 11142, 72144, 21146
   154 00000248 2B0000D01901009A52-
   155 00000248 0000               
   156 0000025C 69560000957900003F-     dd 22121, 31125, 25151, 82113, 51219
   157 0000025C 620000C140010013C8-
   158 0000025C 0000               
   159 00000270 F92B00003FE7000079-     dd 11257, 59199, 44153, 91165, 12179
   160 00000270 AC00001D640100932F-
   161 00000270 0000               
   162 00000284 C7EE0000932B000095-     dd 61127, 11155, 84117, 15115, 31161
   163 00000284 4801000B3B0000B979-
   164 00000284 0000               
   165 00000298 6F060100DABF0000A9-     dd 67183, 49114, 62121, 25128, 21212
   166 00000298 F2000028620000DC52-
   167 00000298 0000               
   168 000002AC B6C70000ADC7000087-     dd 51126, 51117, 21127, 31127, 83184
   169 000002AC 52000097790000F044-
   170 000002AC 0100               
   171 000002C0 AE7D0000C0F5000083-     dd 32174, 62912, 42115, 41616, 92229
   172 000002C0 A4000090A200004568-
   173 000002C0 0100               
   174 000002D4 6E700100A716010077-     dd 94318, 71335, 31351, 31818, 72515
   175 000002D4 7A00004A7C0000431B-
   176 000002D4 0100               
   177 000002E8 762B0000754501008B-     dd 11126, 83317, 82315, 61000, 41414
   178 000002E8 41010048EE0000C6A1-
   179 000002E8 0000               
   180 000002FC 84520000B96B01005A-     dd 21124, 93113, 71514, 91212, 31313
   181 000002FC 1701004C640100517A-
   182 000002FC 0000               
   183 00000310 792B0000B52F0000BF-     dd 11129, 12213, 43455, 51535, 55437
   184 00000310 A900004FC900008DD8-
   185 00000310 0000               
   186 00000324 56620000F80D010075-     dd 25174, 69112, 11125, 45126, 91129
   187 00000324 2B000046B00000F963-
   188 00000324 0100               
   189 00000338 B42B0000CB15010087-     dd 11188, 71115, 31111, 62118, 71215
   190 00000338 790000A6F200002F16-
   191 00000338 0100               
   192 0000034C 66810000CD98000083-     dd 33126, 39117, 42115, 71110, 41114
   193 0000034C A40000C61501009AA0-
   194 0000034C 0000               
   195 00000360 A4A00000975200008E-     dd 41124, 21143, 53134, 22112, 52113
   196 00000360 CF00006056000091CB-
   197 00000360 0000               
   198 00000374 EC1901004835010004-     dd 72172, 79176, 81156, 11165, 31256
   199 00000374 3D01009D2B0000187A-
   200 00000374 0000               
   201 00000388 E1EE0000B4A000001F-     dd 61153, 41140, 92191, 31168, 11162
   202 00000388 680100C07900009A2B-
   203 00000388 0000               
   204 0000039C CAC70000937D00006F-     dd 51146, 32147, 13167, 53177, 21144
   205 0000039C 330000B9CF00009852-
   206 0000039C 0000               
   207 000003B0 82000000               len3 dd 130
   208 000003B4 00000000               min3 dd 0
   209 000003B8 00000000               max3 dd 0
   210 000003BC 00000000               med3 dd 0
   211 000003C0 00000000               sum3 dd 0
   212 000003C4 00000000               ave3 dd 0
   213 000003C8 00000000               estMed3 dd 0
   214 000003CC 00000000               skew3 dd 0
   215                                 
   216 000003D0 E4560000027A000091-    array4 dd 22244, 31234, 71313, 61221, 3216
   217 000003D0 16010025EF0000900C-
   218 000003D0 0000               
   219 000003E4 A2CB000021C80000FF-     dd 52130, 51233, 52223, 51141, 51160
   220 000003E4 CB0000C5C70000D8C7-
   221 000003E4 0000               
   222 000003F8 852B0000015F000094-     dd 11141, 24321, 82324, 32313, 25223
   223 000003F8 410100397E00008762-
   224 000003F8 0000               
   225 0000040C 567A00008DB0000078-     dd 31318, 45197, 21112, 22410, 11110
   226 0000040C 5200008A570000662B-
   227 0000040C 0000               
   228 00000420 6C560000EBA80000D4-     dd 22124, 43243, 13524, 11512, 32323
   229 00000420 340000F82C0000437E-
   230 00000420 0000               
   231 00000434 A9A4000010170100A7-     dd 42153, 71440, 51111, 82618, 62212
   232 00000434 C70000BA42010004F3-
   233 00000434 0000               
   234 00000448 BFFB0000E3450100BE-     dd 64447, 83427, 84414, 73717, 82919
   235 00000448 490100F51F0100E743-
   236 00000448 0100               
   237 0000045C 7F3801009F8601009F-     dd 79999, 99999, 99999, 99999, 99999
   238 0000045C 8601009F8601009F86-
   239 0000045C 0100               
   240 00000470 BF4C0100CA53000033-     dd 85183, 21450, 25651, 24828, 51515
   241 00000470 640000FC6000003BC9-
   242 00000470 0000               
   243 00000484 7F3300007E30000027-     dd 13183, 12414, 54311, 52918, 21212
   244 00000484 D40000B6CE0000DC52-
   245 00000484 0000               
   246 00000498 B25300009D55000001-     dd 21426, 21917, 73217, 62717, 41414
   247 00000498 1E0100FDF40000C6A1-
   248 00000498 0000               
   249 000004AC AE7D0000C0F5000083-     dd 32174, 62912, 42115, 41616, 92229
   250 000004AC A4000090A200004568-
   251 000004AC 0100               
   252 000004C0 6E700100A716010077-     dd 94318, 71335, 31351, 31818, 72515
   253 000004C0 7A00004A7C0000431B-
   254 000004C0 0100               
   255 000004D4 762B0000754501008B-     dd 11126, 83317, 82315, 61000, 41414
   256 000004D4 41010048EE0000C6A1-
   257 000004D4 0000               
   258 000004E8 84520000B96B01005A-     dd 21124, 93113, 71514, 91212, 31313
   259 000004E8 1701004C640100517A-
   260 000004E8 0000               
   261 000004FC E08500000E34000090-     dd 34272, 13326, 22416, 42515, 51616
   262 000004FC 57000013A60000A0C9-
   263 000004FC 0000               
   264 00000510 61B00000AECE0000EB-     dd 45153, 52910, 73451, 81818, 44212
   265 00000510 1E01009A3F0100B4AC-
   266 00000510 0000               
   267 00000524 9F8601006F110100A3-     dd 99999, 69999, 40099, 69999, 54399
   268 00000524 9C00006F1101007FD4-
   269 00000524 0000               
   270 00000538 825600003D7E000065-     dd 22146, 32317, 41317, 42117, 51211
   271 00000538 A1000085A400000BC8-
   272 00000538 0000               
   273 0000054C F72B00001C17010087-     dd 11255, 71452, 52615, 63219, 66111
   274 0000054C CD0000F3F600003F02-
   275 0000054C 0100               
   276 00000560 F8A10000903E010013-     dd 41464, 81552, 61715, 74312, 61253
   277 00000560 F100004822010045EF-
   278 00000560 0000               
   279 00000574 1BC90000F3570000DF-     dd 51483, 22515, 82911, 33418, 21137
   280 00000574 4301008A8200009152-
   281 00000574 0000               
   282 00000588 F6F50000D5D1000033-     dd 62966, 53717, 71987, 62617, 52435
   283 00000588 19010099F40000D3CC-
   284 00000588 0000               
   285 0000059C A21B010040FB0000AC-     dd 72610, 64320, 92332, 43524, 32659
   286 0000059C 68010004AA0000937F-
   287 0000059C 0000               
   288 000005B0 2F7500001F4E00009F-     dd 29999, 19999, 99999, 52009, 99999
   289 000005B0 86010029CB00009F86-
   290 000005B0 0100               
   291 000005C4 577A000020C80000DB-     dd 31319, 51232, 31195, 41335, 81373
   292 000005C4 79000077A10000DD3D-
   293 000005C4 0100               
   294 000005D8 2B5B0000B568010037-     dd 23339, 92341, 12343, 81345, 41494
   295 000005D8 300000C13D010016A2-
   296 000005D8 0000               
   297 000005EC 592C0000CF7A000041-     dd 11353, 31439, 21313, 31000, 51953
   298 000005EC 53000018790000F1CA-
   299 000005EC 0000               
   300 00000600 80300000D7C800005F-     dd 12416, 51415, 51551, 61667, 32912
   301 00000600 C90000E3F000009080-
   302 00000600 0000               
   303 00000614 9CA20000DEF30000CC-     dd 41628, 62430, 61132, 92133, 81000
   304 00000614 EE0000E5670100683C-
   305 00000614 0100               
   306 00000628 DAF50000E8A8000056-     dd 62938, 43240, 32342, 42444, 61461
   307 00000628 7E0000CCA5000015F0-
   308 00000628 0000               
   309 0000063C D115010089AD000023-     dd 71121, 44425, 41251, 61313, 41191
   310 0000063C A1000081EF0000E7A0-
   311 0000063C 0000               
   312 00000650 197A0000FF760100B1-     dd 31257, 95999, 31153, 12665, 41791
   313 00000650 790000793100003FA3-
   314 00000650 0000               
   315 00000664 9EA00000D7A50000D1-     dd 41118, 42455, 62417, 33515, 92111
   316 00000664 F30000EB820000CF67-
   317 00000664 0100               
   318 00000678 23530000D281000073-     dd 21283, 33234, 42611, 41828, 62221
   319 00000678 A6000064A300000DF3-
   320 00000678 0000               
   321 0000068C 6AF500002DD4000053-     dd 62826, 54317, 63827, 82127, 52400
   322 0000068C F90000CF400100B0CC-
   323 0000068C 0000               
   324 000006A0 A02B00008BF600009B-     dd 11168, 63115, 83611, 71218, 31550
   325 000006A0 460100321601003E7B-
   326 000006A0 0000               
   327 000006B4 A45700007D1A01005B-     dd 22436, 72317, 71515, 82411, 61448
   328 000006B4 170100EB41010008F0-
   329 000006B4 0000               
   330 000006C8 621E01000B7A000076-     dd 73314, 31243, 41334, 32312, 42381
   331 000006C8 A10000387E00008DA5-
   332 000006C8 0000               
   333 000006DC B8530000D45801008C-     dd 21432, 88276, 22156, 41665, 71647
   334 000006DC 560000C1A20000DF17-
   335 000006DC 0100               
   336 000006F0 49820000B4A00000E7-     dd 33353, 41140, 32231, 61868, 82265
   337 000006F0 7D0000ACF100005941-
   338 000006F0 0100               
   339 00000704 A0CE000013520100A7-     dd 52896, 86547, 51367, 41777, 12446
   340 00000704 C8000031A300009E30-
   341 00000704 0000               
   342 00000718 DFF70000245B0000D9-     dd 63455, 23332, 71385, 72449, 31146
   343 00000718 160100011B0100AA79-
   344 00000718 0000               
   345 0000072C 703D0100C0820000FF-     dd 81264, 33472, 82175, 73162, 41721
   346 0000072C 400100CA1D0100F9A2-
   347 0000072C 0000               
   348 00000740 9F86010039CF00009F-     dd 99999, 53049, 99999, 99999
   349 00000740 8601009F860100     
   350 00000750 E0000000               len4 dd 224
   351 00000754 00000000               min4 dd 0
   352 00000758 00000000               max4 dd 0
   353 0000075C 00000000               med4 dd 0
   354 00000760 00000000               sum4 dd 0
   355 00000764 00000000               ave4 dd 0
   356 00000768 00000000               estMed4 dd 0
   357 0000076C 00000000               skew4 dd 0
   358                                 
   359                                 
   360                                 
   361                                 
   362                                 [extern oddEvenSort]
   363                                 [extern listStats]
   364                                 [extern estimatedMedian]
   365                                 [extern estimatedSkew]
   366                                 
   367                                 [section .text]
   368                                 
   369                                 [section .text]
   370                                 [global _start]
   371                                 _start:
   372                                 
   373                                 
   374                                 
   375                                 
   376                                 
   377                                 
   378                                 
   379                                 
   380                                 
   381                                 
   382                                 
   383                                 
   384                                 
   385                                 
   386 00000000 48C7C7[00000000]        mov rdi, array1
   387 00000007 8B3425[00000000]        mov esi, dword [len1]
   388 0000000E E8(F6FFFFFF)            call estimatedMedian
   389 00000013 890425[00000000]        mov dword [estMed1], eax
   390                                 
   391                                 
   392 0000001A 48C7C7[00000000]        mov rdi, array1
   393 00000021 8B3425[00000000]        mov esi, dword [len1]
   394 00000028 E8(F6FFFFFF)            call oddEvenSort
   395                                 
   396                                 
   397 0000002D 48C7C7[00000000]        mov rdi, array1
   398 00000034 8B3425[00000000]        mov esi, dword [len1]
   399 0000003B 48C7C2[00000000]        mov rdx, min1
   400 00000042 48C7C1[00000000]        mov rcx, max1
   401 00000049 49C7C0[00000000]        mov r8, med1
   402 00000050 49C7C1[00000000]        mov r9, sum1
   403 00000057 68[00000000]            push ave1
   404 0000005C E8(F6FFFFFF)            call listStats
   405 00000061 4883C408                add rsp, 8
   406                                 
   407                                 
   408 00000065 48C7C7[00000000]        mov rdi, array1
   409 0000006C 8B3425[00000000]        mov esi, dword [len1]
   410 00000073 8B1425[00000000]        mov edx, dword [ave1]
   411 0000007A E8(F6FFFFFF)            call estimatedSkew
   412 0000007F 890425[00000000]        mov dword [skew1], eax
   413                                 
   414                                 
   415                                 
   416                                 
   417                                 
   418 00000086 48C7C7[00000000]        mov rdi, array2
   419 0000008D 8B3425[00000000]        mov esi, dword [len2]
   420 00000094 E8(F6FFFFFF)            call estimatedMedian
   421 00000099 890425[00000000]        mov dword [estMed2], eax
   422                                 
   423                                 
   424 000000A0 48C7C7[00000000]        mov rdi, array2
   425 000000A7 8B3425[00000000]        mov esi, dword [len2]
   426 000000AE E8(F6FFFFFF)            call oddEvenSort
   427                                 
   428                                 
   429 000000B3 48C7C7[00000000]        mov rdi, array2
   430 000000BA 8B3425[00000000]        mov esi, dword [len2]
   431 000000C1 48C7C2[00000000]        mov rdx, min2
   432 000000C8 48C7C1[00000000]        mov rcx, max2
   433 000000CF 49C7C0[00000000]        mov r8, med2
   434 000000D6 49C7C1[00000000]        mov r9, sum2
   435 000000DD 68[00000000]            push ave2
   436 000000E2 E8(F6FFFFFF)            call listStats
   437 000000E7 4883C408                add rsp, 8
   438                                 
   439                                 
   440 000000EB 48C7C7[00000000]        mov rdi, array2
   441 000000F2 8B3425[00000000]        mov esi, dword [len2]
   442 000000F9 8B1425[00000000]        mov edx, dword [ave2]
   443 00000100 E8(F6FFFFFF)            call estimatedSkew
   444 00000105 890425[00000000]        mov dword [skew2], eax
   445                                 
   446                                 
   447                                 
   448                                 
   449                                 
   450 0000010C 48C7C7[00000000]        mov rdi, array3
   451 00000113 8B3425[00000000]        mov esi, dword [len3]
   452 0000011A E8(F6FFFFFF)            call estimatedMedian
   453 0000011F 890425[00000000]        mov dword [estMed3], eax
   454                                 
   455                                 
   456 00000126 48C7C7[00000000]        mov rdi, array3
   457 0000012D 8B3425[00000000]        mov esi, dword [len3]
   458 00000134 E8(F6FFFFFF)            call oddEvenSort
   459                                 
   460                                 
   461 00000139 48C7C7[00000000]        mov rdi, array3
   462 00000140 8B3425[00000000]        mov esi, dword [len3]
   463 00000147 48C7C2[00000000]        mov rdx, min3
   464 0000014E 48C7C1[00000000]        mov rcx, max3
   465 00000155 49C7C0[00000000]        mov r8, med3
   466 0000015C 49C7C1[00000000]        mov r9, sum3
   467 00000163 68[00000000]            push ave3
   468 00000168 E8(F6FFFFFF)            call listStats
   469 0000016D 4883C408                add rsp, 8
   470                                 
   471                                 
   472 00000171 48C7C7[00000000]        mov rdi, array3
   473 00000178 8B3425[00000000]        mov esi, dword [len3]
   474 0000017F 8B1425[00000000]        mov edx, dword [ave3]
   475 00000186 E8(F6FFFFFF)            call estimatedSkew
   476 0000018B 890425[00000000]        mov dword [skew3], eax
   477                                 
   478                                 
   479                                 
   480                                 
   481                                 
   482 00000192 48C7C7[00000000]        mov rdi, array4
   483 00000199 8B3425[00000000]        mov esi, dword [len4]
   484 000001A0 E8(F6FFFFFF)            call estimatedMedian
   485 000001A5 890425[00000000]        mov dword [estMed4], eax
   486                                 
   487                                 
   488 000001AC 48C7C7[00000000]        mov rdi, array4
   489 000001B3 8B3425[00000000]        mov esi, dword [len4]
   490 000001BA E8(F6FFFFFF)            call oddEvenSort
   491                                 
   492                                 
   493 000001BF 48C7C7[00000000]        mov rdi, array4
   494 000001C6 8B3425[00000000]        mov esi, dword [len4]
   495 000001CD 48C7C2[00000000]        mov rdx, min4
   496 000001D4 48C7C1[00000000]        mov rcx, max4
   497 000001DB 49C7C0[00000000]        mov r8, med4
   498 000001E2 49C7C1[00000000]        mov r9, sum4
   499 000001E9 68[00000000]            push ave4
   500 000001EE E8(F6FFFFFF)            call listStats
   501 000001F3 4883C408                add rsp, 8
   502                                 
   503                                 
   504 000001F7 48C7C7[00000000]        mov rdi, array4
   505 000001FE 8B3425[00000000]        mov esi, dword [len4]
   506 00000205 8B1425[00000000]        mov edx, dword [ave4]
   507 0000020C E8(F6FFFFFF)            call estimatedSkew
   508 00000211 890425[00000000]        mov dword [skew4], eax
   509                                 
   510                                 
   511                                 
   512                                 
   513                                 last:
   514 00000218 48C7C03C000000          mov rax, SYS_exit
   515 0000021F 48C7C700000000          mov rdi, EXIT_SUCCESS
   516 00000226 0F05                    syscall
   517                                 
   518                                 
   519                                 
