     1                                 %line 1+1 ast05.asm
     2                                 
     3                                 
     4                                 
     5                                 
     6                                 
     7                                 
     8                                 
     9                                 
    10                                 
    11                                 
    12                                 [section .data]
    13                                 
    14                                 
    15                                 
    16                                 NULL equ 0
    17                                 
    18                                 TRUE equ 1
    19                                 FALSE equ 0
    20                                 
    21                                 EXIT_SUCCESS equ 0
    22                                 SYS_exit equ 60
    23                                 
    24                                 
    25 00000000 790400006F04000063-    sideLens dd 1145, 1135, 1123, 1123, 1123
    26 00000000 040000630400006304-
    27 00000000 0000               
    28 00000014 E6040000AE05000080-    dd 1254, 1454, 1152, 1164, 1542
    29 00000014 0400008C0400000606-
    30 00000014 0000               
    31 00000028 49050000B10500009E-    dd 1353, 1457, 1182, 1142, 1354
    32 00000028 040000760400004A05-
    33 00000028 0000               
    34 0000003C 540500006E04000082-    dd 1364, 1134, 1154, 1344, 1142
    35 0000003C 040000400500007604-
    36 0000003C 0000               
    37 00000050 95040000070600007F-    dd 1173, 1543, 1151, 1352, 1434
    38 00000050 040000480500009A05-
    39 00000050 0000               
    40 00000064 4B0500000D04000063-    dd 1355, 1037, 1123, 1024, 1453
    41 00000064 04000000040000AD05-
    42 00000064 0000               
    43 00000078 6E0400005608000084-    dd 1134, 2134, 1156, 1134, 1142
    44 00000078 0400006E0400007604-
    45 00000078 0000               
    46 0000008C F3040000500400006E-    dd 1267, 1104, 1134, 1246, 1123
    47 0000008C 040000DE0400006304-
    48 0000008C 0000               
    49 000000A0 6E0400008904000098-    dd 1134, 1161, 1176, 1157, 1142
    50 000000A0 040000850400007604-
    51 000000A0 0000               
    52 000000B4 81040000A9040000A0-    dd 1153, 1193, 1184, 1142, 2034
    53 000000B4 04000076040000F207-
    54 000000B4 0000               
    55 000000C8 85007200AD00830073-    apothemLens dw 133, 114, 173, 131, 115
    56 000000C8 00                 
    57 000000D2 A400AD00AE007B009C-    dw 164, 173, 174, 123, 156
    58 000000D2 00                 
    59 000000DC 9000980083008E009C-    dw 144, 152, 131, 142, 156
    60 000000DC 00                 
    61 000000E6 73007C008800AF0092-    dw 115, 124, 136, 175, 146
    62 000000E6 00                 
    63 000000F0 71007B009900A70087-    dw 113, 123, 153, 167, 135
    64 000000F0 00                 
    65 000000FA 72008100A400A70086-    dw 114, 129, 164, 167, 134
    66 000000FA 00                 
    67 00000104 74007100A4009900A5-    dw 116, 113, 164, 153, 165
    68 00000104 00                 
    69 0000010E 7E0070009D00A70086-    dw 126, 112, 157, 167, 134
    70 0000010E 00                 
    71 00000118 7500720075007D0099-    dw 117, 114, 117, 125, 153
    72 00000118 00                 
    73 00000122 7B00AD0073006A0071-    dw 123, 173, 115, 106, 113
    74 00000122 00                 
    75 0000012C 32000000               length dd 50
    76 00000130 00000000               perimMin dd 0
    77 00000134 00000000               perimEstMed dd 0
    78 00000138 00000000               perimMax dd 0
    79 0000013C 00000000               perimSum dd 0
    80 00000140 00000000               perimAve dd 0
    81 00000144 00000000               areaMin dd 0
    82 00000148 00000000               areaEstMed dd 0
    83 0000014C 00000000               areaMax dd 0
    84 00000150 00000000               areaSum dd 0
    85 00000154 00000000               areaAve dd 0
    86                                 
    87                                 
    88                                 [section .bss]
    89 00000000 <gap>                  hexPerims resd 50
    90 000000C8 <gap>                  hexAreas resd 50
    91                                 
    92                                 
    93                                 
    94                                 
    95                                 [section .text]
    96                                 [global _start]
    97                                 _start:
    98                                 
    99                                 
   100                                 
   101                                 
   102                                 
   103                                 
   104 00000000 49C7C400000000         mov r12, 0
   105                                 
   106                                 mainLoop:
   107 00000007 428B04A5[00000000]     mov eax, dword [sideLens + (r12 * 4)]
   108 0000000F B906000000             mov ecx, 6
   109 00000014 F7E1                   mul ecx
   110 00000016 890425[00000000]       mov dword [hexPerims], eax
   111                                 
   112                                 
   113 0000001D 430FBF8424[00000000]     movsx eax, word [apothemLens + (r12 * 2)]
   114 00000026 B902000000             mov ecx, 2
   115 0000002B 42F724A5[00000000]     mul dword [hexPerims + (r12 * 4)]
   116 00000033 99                     cdq
   117 00000034 F7F1                   div ecx
   118 00000036 890425[00000000]       mov dword [hexAreas], eax
   119                                 
   120 0000003D 49FFC4                 inc r12
   121 00000040 443B2425[00000000]     cmp r12d, dword [length]
   122 00000048 75BB                   jne mainLoop
   123                                 
   124                                 
   125                                 
   126 0000004A 49C7C400000000         mov r12, 0
   127 00000051 8B0425[00000000]       mov eax, dword [hexPerims]
   128 00000058 890425[00000000]       mov dword [perimMax], eax
   129 0000005F 890425[00000000]       mov dword [perimMin], eax
   130                                 
   131                                 perimeterLoop:
   132 00000066 428B04A5[00000000]     mov eax, dword [hexPerims + (r12 * 4)]
   133 0000006E 010425[00000000]       add dword [perimSum], eax
   134                                 
   135 00000075 390425[00000000]       cmp dword [perimMax], eax
   136 0000007C 7200                   jb swapMax
   137 0000007E EB05                   jmp checkMin
   138                                 
   139                                 swapMax:
   140 00000080 890425[00000000]       mov dword [perimMax], eax
   141                                 
   142                                 checkMin:
   143 00000087 390425[00000000]       cmp dword [perimMin], eax
   144 0000008E 7700                   ja swapMin
   145 00000090 EB05                   jmp continue
   146                                 
   147                                 swapMin:
   148 00000092 890425[00000000]       mov dword [perimMin], eax
   149                                 
   150                                 continue:
   151                                 
   152 00000099 49FFC4                 inc r12
   153 0000009C 443B2425[00000000]     cmp r12d, dword [length]
   154 000000A4 75BE                   jne perimeterLoop
   155                                 
   156                                 
   157 000000A6 8B0425[00000000]       mov eax, dword [perimSum]
   158 000000AD 99                     cdq
   159 000000AE F73425[00000000]       div dword [length]
   160 000000B5 890425[00000000]       mov dword [perimAve], eax
   161                                 
   162 000000BC 8B0425[00000000]       mov eax, dword [length]
   163 000000C3 99                     cdq
   164 000000C4 B902000000             mov ecx, 2
   165 000000C9 F7F1                   div ecx
   166 000000CB 4189C4                 mov r12d, eax
   167                                 
   168 000000CE 67428B04A5[00000000]     mov eax, dword [hexPerims + (r12d * 4)]
   169 000000D7 67420304A5[FCFFFFFF]     add eax, dword [hexPerims + (r12d * 4) - 4]
   170 000000E0 B902000000             mov ecx, 2
   171 000000E5 99                     cdq
   172 000000E6 F7F1                   div ecx
   173 000000E8 890425[00000000]       mov dword [perimEstMed], eax
   174                                 
   175                                 
   176                                 
   177 000000EF 49C7C400000000         mov r12, 0
   178 000000F6 8B0425[00000000]       mov eax, dword [hexAreas]
   179 000000FD 890425[00000000]       mov dword [areaMax], eax
   180 00000104 890425[00000000]       mov dword [areaMin], eax
   181                                 
   182                                 areaLoop:
   183 0000010B 428B04A5[00000000]     mov eax, dword [hexAreas + (r12 * 4)]
   184 00000113 010425[00000000]       add dword [areaSum], eax
   185                                 
   186 0000011A 390425[00000000]       cmp dword [areaMax], eax
   187 00000121 7200                   jb swapMaxArea
   188 00000123 EB05                   jmp checkMinArea
   189                                 
   190                                 swapMaxArea:
   191 00000125 890425[00000000]       mov dword [areaMax], eax
   192                                 
   193                                 checkMinArea:
   194 0000012C 390425[00000000]       cmp dword [areaMin], eax
   195 00000133 7700                   ja swapMinArea
   196 00000135 EB05                   jmp continueArea
   197                                 
   198                                 swapMinArea:
   199 00000137 890425[00000000]       mov dword [areaMin], eax
   200                                 
   201                                 continueArea:
   202                                 
   203 0000013E 49FFC4                 inc r12
   204 00000141 443B2425[00000000]     cmp r12d, dword [length]
   205 00000149 75BE                   jne areaLoop
   206                                 
   207                                 
   208 0000014B 8B0425[00000000]       mov eax, dword [areaSum]
   209 00000152 99                     cdq
   210 00000153 F73425[00000000]       div dword [length]
   211 0000015A 890425[00000000]       mov dword [areaAve], eax
   212                                 
   213 00000161 8B0425[00000000]       mov eax, dword [length]
   214 00000168 99                     cdq
   215 00000169 B902000000             mov ecx, 2
   216 0000016E F7F1                   div ecx
   217 00000170 4189C4                 mov r12d, eax
   218                                 
   219 00000173 67428B04A5[00000000]     mov eax, dword [hexAreas + (r12d * 4)]
   220 0000017C 67420304A5[FCFFFFFF]     add eax, dword [hexAreas + (r12d * 4) - 4]
   221 00000185 B902000000             mov ecx, 2
   222 0000018A 99                     cdq
   223 0000018B F7F1                   div ecx
   224 0000018D 890425[00000000]       mov dword [areaEstMed], eax
   225                                 
   226                                 
   227                                 
   228                                 
   229                                 last:
   230 00000194 48C7C03C000000          mov rax, SYS_exit
   231 0000019B 48C7C700000000          mov rdi, EXIT_SUCCESS
   232 000001A2 0F05                    syscall
   233                                 
