     1                                 %line 1+1 ast07.asm
     2                                 
     3                                 
     4                                 
     5                                 
     6                                 
     7                                 
     8                                 
     9                                 
    10                                 
    11                                 
    12                                 
    13                                 
    14                                 
    15                                 
    16                                 
    17                                 
    18                                 
    19                                 
    20                                 
    21                                 %line 58+1 ast07.asm
    22                                 
    23                                 
    24                                 
    25                                 
    26                                 
    27                                 
    28                                 
    29                                 
    30                                 
    31                                 
    32                                 
    33                                 
    34                                 
    35                                 
    36                                 %line 100+1 ast07.asm
    37                                 
    38                                 
    39                                 
    40                                 [section .data]
    41                                 
    42                                 
    43                                 
    44                                 
    45                                 TRUE equ 1
    46                                 FALSE equ 0
    47                                 
    48                                 EXIT_SUCCESS equ 0
    49                                 
    50                                 STDIN equ 0
    51                                 STDOUT equ 1
    52                                 STDERR equ 2
    53                                 
    54                                 SYS_read equ 0
    55                                 SYS_write equ 1
    56                                 SYS_open equ 2
    57                                 SYS_close equ 3
    58                                 SYS_fork equ 57
    59                                 SYS_exit equ 60
    60                                 SYS_creat equ 85
    61                                 SYS_time equ 201
    62                                 
    63                                 LF equ 10
    64                                 SPACE equ " "
    65                                 NULL equ 0
    66                                 ESC equ 27
    67                                 
    68                                 
    69                                 
    70                                 
    71                                 STR_LENGTH equ 15
    72                                 
    73                                 
    74                                 
    75                                 
    76 00000000 9300000063040000C5-    lst dd 147, 1123, 2245, 4440, 165
    77 00000000 08000058110000A500-
    78 00000000 0000               
    79 00000014 450000007E0000003B-     dd 69, 126, 571, 147, 228
    80 00000014 02000093000000E400-
    81 00000014 0000               
    82 00000028 1B0000005A000000B1-     dd 27, 90, 177, 75, 14
    83 00000028 0000004B0000000E00-
    84 00000028 0000               
    85 0000003C B5000000190000000F-     dd 181, 25, 15, 22, 1217
    86 0000003C 00000016000000C104-
    87 0000003C 0000               
    88 00000050 7F000000400000008C-     dd 127, 64, 140, 172, 24
    89 00000050 000000AC0000001800-
    90 00000050 0000               
    91 00000064 710800008600000097-     dd 2161, 134, 151, 32, 12
    92 00000064 000000200000000C00-
    93 00000064 0000               
    94 00000078 59040000D004000062-     dd 1113, 1232, 2146, 3376, 5120
    95 00000078 080000300D00000014-
    96 00000078 0000               
    97 0000008C 340900005C0C000005-     dd 2356, 3164, 34565, 3155, 23157
    98 0000008C 870000530C0000755A-
    99 0000008C 0000               
   100 000000A0 E90300008000000021-     dd 1001, 128, 33, 105, 8327
   101 000000A0 000000690000008720-
   102 000000A0 0000               
   103 000000B4 65000000730000006C-     dd 101, 115, 108, 12233, 2115
   104 000000B4 000000C92F00004308-
   105 000000B4 0000               
   106 000000C8 CB040000CA04000009-     dd 1227, 1226, 5129, 117, 107
   107 000000C8 140000750000006B00-
   108 000000C8 0000               
   109 000000DC 690000006D000000DA-     dd 105, 109, 730, 150, 3414
   110 000000DC 02000096000000560D-
   111 000000DC 0000               
   112 000000F0 53040000D7170000DD-     dd 1107, 6103, 1245, 6440, 465
   113 000000F0 04000028190000D101-
   114 000000F0 0000               
   115 00000104 07090000FE000000B0-     dd 2311, 254, 4528, 913, 6722
   116 00000104 11000091030000421A-
   117 00000104 0000               
   118 00000118 7D0400004E08000027-     dd 1149, 2126, 5671, 4647, 4628
   119 00000118 160000271200001412-
   120 00000118 0000               
   121 0000012C 4701000056090000B1-     dd 327, 2390, 177, 8275, 5614
   122 0000012C 00000053200000EE15-
   123 0000012C 0000               
   124 00000140 310C00009F01000067-     dd 3121, 415, 615, 22, 7217
   125 00000140 02000016000000311C-
   126 00000140 0000               
   127 00000154 C50400002200000007-     dd 1221, 34, 6151, 432, 114
   128 00000154 180000B00100007200-
   129 00000154 0000               
   130 00000168 75020000720000000A-     dd 629, 114, 522, 2413, 131
   131 00000168 0200006D0900008300-
   132 00000168 0000               
   133 0000017C 071600007E0000003E-     dd 5639, 126, 62, 41, 127
   134 0000017C 000000290000007F00-
   135 0000017C 0000               
   136 00000190 350800008500000085-     dd 2101, 133, 133, 50, 4532
   137 00000190 00000032000000B411-
   138 00000190 0000               
   139 000001A4 C30400002C0C00003E-     dd 1219, 3116, 62, 17, 127
   140 000001A4 000000110000007F00-
   141 000001A4 0000               
   142 000001B8 831A0000D91100004F-     dd 6787, 4569, 79, 15675, 14
   143 000001B8 0000003B3D00000E00-
   144 000001B8 0000               
   145 000001CC C91E0000802000008B-     dd 7881, 8320, 3467, 4559, 1190
   146 000001CC 0D0000CF110000A604-
   147 000001CC 0000               
   148 000001E0 BA0000008600000065-     dd 186, 134, 1125, 5675, 3476
   149 000001E0 0400002B160000940D-
   150 000001E0 0000               
   151 000001F4 59080000410800006F-     dd 2137, 2113, 1647, 114, 15
   152 000001F4 060000720000000F00-
   153 000001F4 0000               
   154 00000208 AB190000C81D000080-     dd 6571, 7624, 128, 113, 3112
   155 00000208 00000071000000280C-
   156 00000208 0000               
   157 0000021C 6104000040010000BC-     dd 1121, 320, 4540, 5679, 1190
   158 0000021C 1100002F160000A604-
   159 0000021C 0000               
   160 00000230 A5230000740000007A-     dd 9125, 116, 122, 117, 127
   161 00000230 000000750000007F00-
   162 00000230 0000               
   163 00000244 2D160000650000008F-     dd 5677, 101, 3727, 125, 3184
   164 00000244 0E00007D000000700C-
   165 00000244 0000               
   166 00000258 500400007C00000070-     dd 1104, 124, 112, 143, 176
   167 00000258 0000008F000000B000-
   168 00000258 0000               
   169 0000026C 6E1D00004E080000E0-     dd 7534, 2126, 6112, 156, 1103
   170 0000026C 1700009C0000004F04-
   171 0000026C 0000               
   172 00000280 671A0000B61800007B-     dd 6759, 6326, 2171, 147, 5628
   173 00000280 08000093000000FC15-
   174 00000280 0000               
   175 00000294 671D0000911D000069-     dd 7527, 7569, 3177, 6785, 3514
   176 00000294 0C0000811A0000BA0D-
   177 00000294 0000               
   178 000002A8 84040000A400000045-     dd 1156, 164, 4165, 155, 5156
   179 000002A8 1000009B0000002414-
   180 000002A8 0000               
   181 000002BC 02160000661D000055-     dd 5634, 7526, 3413, 7686, 7563
   182 000002BC 0D0000061E00008B1D-
   183 000002BC 0000               
   184 000002D0 63080000710000008F-     dd 2147, 113, 143, 140, 165
   185 000002D0 0000008C000000A500-
   186 000002D0 0000               
   187 000002E4 59160000EF150000D8-     dd 5721, 5615, 4568, 7813, 1231
   188 000002E4 110000851E0000CF04-
   189 000002E4 0000               
   190 000002F8 97150000DC1800004A-     dd 5527, 6364, 330, 172, 24
   191 000002F8 010000AC0000001800-
   192 000002F8 0000               
   193 0000030C 651D0000F01500001E-     dd 7525, 5616, 5662, 6328, 2342
   194 0000030C 160000B81800002609-
   195 0000030C 0000               
   196                                 
   197 00000320 0A000000               len dd 10
   198                                 
   199                                 
   200 00000324 00000000               min dd 0
   201 00000328 00000000               med dd 0
   202 0000032C 00000000               max dd 0
   203 00000330 00000000               sum dd 0
   204 00000334 00000000               avg dd 0
   205                                 
   206                                 
   207                                 
   208 00000338 00                     isSorted db FALSE
   209                                 
   210                                 
   211                                 
   212                                 
   213                                 
   214 00000339 0A00                   newLine db LF, NULL
   215                                 
   216 0000033B 0A2D2D2D2D2D2D2D2D-    hdr db LF, "---------------------------"
   217 0000033B 2D2D2D2D2D2D2D2D2D-
   218 0000033B 2D2D2D2D2D2D2D2D2D-
   219 0000033B 2D                 
   220 00000357 2D2D2D2D2D2D2D2D2D-     db "---------------------------"
   221 00000357 2D2D2D2D2D2D2D2D2D-
   222 00000357 2D2D2D2D2D2D2D2D2D 
   223 00000372 0A1B5B316D43532032-     db LF, ESC, "[1m", "CS 218 - Assignment #7", ESC, "[0m"
   224 00000372 3138202D2041737369-
   225 00000372 676E6D656E74202337-
   226 00000372 1B5B306D           
   227 00000391 0A4F64642F4576656E-     db LF, "Odd/Even Sort", LF, LF, NULL
   228 00000391 20536F72740A0A00   
   229                                 
   230 000003A2 4D696E696D756D3A20-    hdrMin db "Minimum:  ", NULL
   231 000003A2 2000               
   232 000003AD 4D6178696D756D3A20-    hdrMax db "Maximum:  ", NULL
   233 000003AD 2000               
   234 000003B8 4D656469616E3A2020-    hdrMed db "Median:   ", NULL
   235 000003B8 2000               
   236 000003C3 53756D3A2020202020-    hdrSum db "Sum:      ", NULL
   237 000003C3 2000               
   238 000003CE 417665726167653A20-    hdrAve db "Average:  ", NULL
   239 000003CE 2000               
   240                                 
   241                                 
   242                                 
   243                                 [section .bss]
   244                                 
   245 00000000 <gap>                  tmpString resb STR_LENGTH
   246                                 
   247                                 
   248                                 
   249                                 [section .text]
   250                                 [global _start]
   251                                 _start:
   252                                 
   253                                 
   254                                 
   255                                 
   256                                 
   257                                 
   258                                 
   259                                 
   260                                 
   261                                 
   262                                 
   263                                 
   264                                 
   265                                 
   266                                 
   267                                 
   268                                 
   269                                 
   270                                 
   271                                 
   272                                 
   273                                 
   274                                 
   275                                 
   276                                 
   277                                 while:
   278 00000000 C60425[00000000]01     mov byte [isSorted], 1
   279 00000008 49C7C401000000         mov r12, 1
   280 0000000F 448B2C25[00000000]     mov r13d, dword [len]
   281 00000017 4183ED02               sub r13d, 2
   282                                 forLoop1:
   283                                 
   284                                 
   285                                 
   286 0000001B 428B1CA5[00000000]     mov ebx, dword [lst + r12 * 4]
   287 00000023 428B0CA5[04000000]     mov ecx, dword [lst + ((r12 * 4) + 4)]
   288                                 
   289 0000002B 39CB                   cmp ebx, ecx
   290 0000002D 7616                   jbe loopCondition1
   291                                 
   292                                 
   293 0000002F 42890CA5[00000000]     mov dword [lst + r12 * 4], ecx
   294 00000037 42891CA5[04000000]     mov dword [lst + ((r12 * 4) + 4)], ebx
   295                                 
   296 0000003F C60425[00000000]00     mov byte [isSorted], 0
   297                                 
   298                                 loopCondition1:
   299 00000047 4539EC                 cmp r12d, r13d
   300 0000004A 7200                   jb incLoop1
   301 0000004C EB04                   jmp continue
   302                                 incLoop1:
   303 0000004E 4183C402               add r12d, 2
   304 00000052 EBC5                   jmp forLoop1
   305                                 
   306                                 continue:
   307                                 
   308                                 
   309                                 
   310                                 
   311                                 
   312                                 
   313                                 
   314                                 
   315                                 
   316                                 
   317 00000054 49C7C400000000         mov r12, 0
   318 0000005B 428B04A5[00000000]     mov eax, dword [lst + r12 * 4]
   319 00000063 890425[00000000]       mov dword [min], eax
   320 0000006A 890425[00000000]       mov dword [max], eax
   321                                 perimsLoop:
   322 00000071 428B04A5[00000000]     mov eax, dword [lst + r12 * 4]
   323 00000079 010425[00000000]       add dword [sum], eax
   324                                 
   325 00000080 390425[00000000]       cmp dword [min], eax
   326 00000087 7700                   ja swapMin
   327 00000089 EB05                   jmp checkMax
   328                                 
   329                                 swapMin:
   330 0000008B 890425[00000000]       mov dword [min], eax
   331                                 
   332                                 checkMax:
   333 00000092 390425[00000000]       cmp dword [max], eax
   334 00000099 7200                   jb swapMax
   335 0000009B EB05                   jmp skipMax
   336                                 
   337                                 swapMax:
   338 0000009D 890425[00000000]       mov dword [max], eax
   339                                 
   340                                 skipMax:
   341 000000A4 49FFC4                 inc r12
   342 000000A7 443B2425[00000000]     cmp r12d, dword [len]
   343 000000AF 75BE                   jne perimsLoop
   344                                 
   345                                 
   346 000000B1 8B0425[00000000]       mov eax, dword [sum]
   347 000000B8 8B0C25[00000000]       mov ecx, dword [len]
   348 000000BF 99                     cdq
   349 000000C0 F7F1                   div ecx
   350 000000C2 890425[00000000]       mov dword [avg], eax
   351                                 
   352                                 
   353 000000C9 49C7C400000000         mov r12, 0
   354 000000D0 448B2425[00000000]     mov r12d, dword [len]
   355 000000D8 41D1EC                 shr r12d, 1
   356                                 
   357 000000DB 428B0CA5[FCFFFFFF]     mov ecx, dword [lst + ((r12 * 4) - 4)]
   358 000000E3 428B1CA5[00000000]     mov ebx, dword [lst + r12 * 4]
   359                                 
   360 000000EB 01D9                   add ecx, ebx
   361 000000ED D1E9                   shr ecx, 1
   362 000000EF 890C25[00000000]       mov dword [med], ecx
   363                                 
   364                                 
   365                                 
   366                                 
   367                                 
   368 000000F6 50                      push rax
   369                                 %line 337+0 ast07.asm
   370 000000F7 57                      push rdi
   371 000000F8 56                      push rsi
   372 000000F9 52                      push rdx
   373 000000FA 51                      push rcx
   374                                 
   375 000000FB 48C7C200000000          mov rdx, 0
   376 00000102 48C7C7[00000000]        mov rdi, hdr
   377                                 ..@4.countLoop:
   378 00000109 803F00                  cmp byte [rdi], NULL
   379 0000010C 7406                    je ..@4.countLoopDone
   380 0000010E 48FFC7                  inc rdi
   381 00000111 48FFC2                  inc rdx
   382 00000114 EBF1                    jmp ..@4.countLoop
   383                                 ..@4.countLoopDone:
   384                                 
   385 00000116 48C7C001000000          mov rax, SYS_write
   386 0000011D 48C7C701000000          mov rdi, STDOUT
   387 00000124 48C7C6[00000000]        mov rsi, hdr
   388 0000012B 0F05                    syscall
   389                                 
   390 0000012D 59                      pop rcx
   391 0000012E 5A                      pop rdx
   392 0000012F 5E                      pop rsi
   393 00000130 5F                      pop rdi
   394 00000131 58                      pop rax
   395                                 %line 338+1 ast07.asm
   396                                 
   397 00000132 50                      push rax
   398                                 %line 339+0 ast07.asm
   399 00000133 57                      push rdi
   400 00000134 56                      push rsi
   401 00000135 52                      push rdx
   402 00000136 51                      push rcx
   403                                 
   404 00000137 48C7C200000000          mov rdx, 0
   405 0000013E 48C7C7[00000000]        mov rdi, hdrMin
   406                                 ..@5.countLoop:
   407 00000145 803F00                  cmp byte [rdi], NULL
   408 00000148 7406                    je ..@5.countLoopDone
   409 0000014A 48FFC7                  inc rdi
   410 0000014D 48FFC2                  inc rdx
   411 00000150 EBF1                    jmp ..@5.countLoop
   412                                 ..@5.countLoopDone:
   413                                 
   414 00000152 48C7C001000000          mov rax, SYS_write
   415 00000159 48C7C701000000          mov rdi, STDOUT
   416 00000160 48C7C6[00000000]        mov rsi, hdrMin
   417 00000167 0F05                    syscall
   418                                 
   419 00000169 59                      pop rcx
   420 0000016A 5A                      pop rdx
   421 0000016B 5E                      pop rsi
   422 0000016C 5F                      pop rdi
   423 0000016D 58                      pop rax
   424                                 %line 340+1 ast07.asm
   425                                 
   426                                 %line 340+0 ast07.asm
   427                                 
   428 0000016E 49C7C400000000         mov r12, 0
   429 00000175 49C7C50A000000         mov r13, 10
   430 0000017C 8B0425[00000000]       mov eax, dword [min]
   431                                 ..@6.toString:
   432 00000183 99                     cdq
   433 00000184 41F7F5                 div r13d
   434 00000187 83C230                 add edx, 48
   435 0000018A 41889424[00000000]     mov byte [tmpString + r12], dl
   436 00000192 49FFC4                 inc r12
   437 00000195 83F800                 cmp eax, 0
   438 00000198 75E7                   jne ..@6.toString
   439                                 
   440 0000019A 49FFCC                 dec r12
   441 0000019D 49C7C500000000         mov r13, 0
   442 000001A4 49C7C60F000000         mov r14, STR_LENGTH
   443 000001AB 41FECE                 dec r14b
   444 000001AE 4528E6                 sub r14b, r12b
   445                                 
   446                                 ..@6.insertWS:
   447 000001B1 41C685[00000000]20     mov byte [tmpString + r13], 32
   448 000001B9 41FEC5                 inc r13b
   449 000001BC 4538F5                 cmp r13b, r14b
   450 000001BF 75EE                   jne ..@6.insertWS
   451                                 
   452                                 ..@6.moveChars:
   453 000001C1 418A8424[00000000]     mov al, byte [tmpString + r12]
   454 000001C9 418885[00000000]       mov byte [tmpString + r13], al
   455 000001D0 49FFCC                 dec r12
   456 000001D3 49FFC5                 inc r13
   457 000001D6 4983FC0F               cmp r12, STR_LENGTH
   458 000001DA 75E3                   jne ..@6.moveChars
   459                                 
   460 000001DC 41C685[00000000]00     mov byte[tmpString + r13], NULL
   461                                 
   462                                 %line 341+1 ast07.asm
   463 000001E4 50                      push rax
   464                                 %line 341+0 ast07.asm
   465 000001E5 57                      push rdi
   466 000001E6 56                      push rsi
   467 000001E7 52                      push rdx
   468 000001E8 51                      push rcx
   469                                 
   470 000001E9 48C7C200000000          mov rdx, 0
   471 000001F0 48C7C7[00000000]        mov rdi, tmpString
   472                                 ..@7.countLoop:
   473 000001F7 803F00                  cmp byte [rdi], NULL
   474 000001FA 7406                    je ..@7.countLoopDone
   475 000001FC 48FFC7                  inc rdi
   476 000001FF 48FFC2                  inc rdx
   477 00000202 EBF1                    jmp ..@7.countLoop
   478                                 ..@7.countLoopDone:
   479                                 
   480 00000204 48C7C001000000          mov rax, SYS_write
   481 0000020B 48C7C701000000          mov rdi, STDOUT
   482 00000212 48C7C6[00000000]        mov rsi, tmpString
   483 00000219 0F05                    syscall
   484                                 
   485 0000021B 59                      pop rcx
   486 0000021C 5A                      pop rdx
   487 0000021D 5E                      pop rsi
   488 0000021E 5F                      pop rdi
   489 0000021F 58                      pop rax
   490                                 %line 342+1 ast07.asm
   491 00000220 50                      push rax
   492                                 %line 342+0 ast07.asm
   493 00000221 57                      push rdi
   494 00000222 56                      push rsi
   495 00000223 52                      push rdx
   496 00000224 51                      push rcx
   497                                 
   498 00000225 48C7C200000000          mov rdx, 0
   499 0000022C 48C7C7[00000000]        mov rdi, newLine
   500                                 ..@8.countLoop:
   501 00000233 803F00                  cmp byte [rdi], NULL
   502 00000236 7406                    je ..@8.countLoopDone
   503 00000238 48FFC7                  inc rdi
   504 0000023B 48FFC2                  inc rdx
   505 0000023E EBF1                    jmp ..@8.countLoop
   506                                 ..@8.countLoopDone:
   507                                 
   508 00000240 48C7C001000000          mov rax, SYS_write
   509 00000247 48C7C701000000          mov rdi, STDOUT
   510 0000024E 48C7C6[00000000]        mov rsi, newLine
   511 00000255 0F05                    syscall
   512                                 
   513 00000257 59                      pop rcx
   514 00000258 5A                      pop rdx
   515 00000259 5E                      pop rsi
   516 0000025A 5F                      pop rdi
   517 0000025B 58                      pop rax
   518                                 %line 343+1 ast07.asm
   519                                 
   520 0000025C 50                      push rax
   521                                 %line 344+0 ast07.asm
   522 0000025D 57                      push rdi
   523 0000025E 56                      push rsi
   524 0000025F 52                      push rdx
   525 00000260 51                      push rcx
   526                                 
   527 00000261 48C7C200000000          mov rdx, 0
   528 00000268 48C7C7[00000000]        mov rdi, hdrMax
   529                                 ..@9.countLoop:
   530 0000026F 803F00                  cmp byte [rdi], NULL
   531 00000272 7406                    je ..@9.countLoopDone
   532 00000274 48FFC7                  inc rdi
   533 00000277 48FFC2                  inc rdx
   534 0000027A EBF1                    jmp ..@9.countLoop
   535                                 ..@9.countLoopDone:
   536                                 
   537 0000027C 48C7C001000000          mov rax, SYS_write
   538 00000283 48C7C701000000          mov rdi, STDOUT
   539 0000028A 48C7C6[00000000]        mov rsi, hdrMax
   540 00000291 0F05                    syscall
   541                                 
   542 00000293 59                      pop rcx
   543 00000294 5A                      pop rdx
   544 00000295 5E                      pop rsi
   545 00000296 5F                      pop rdi
   546 00000297 58                      pop rax
   547                                 %line 345+1 ast07.asm
   548                                 
   549                                 %line 345+0 ast07.asm
   550                                 
   551 00000298 49C7C400000000         mov r12, 0
   552 0000029F 49C7C50A000000         mov r13, 10
   553 000002A6 8B0425[00000000]       mov eax, dword [max]
   554                                 ..@10.toString:
   555 000002AD 99                     cdq
   556 000002AE 41F7F5                 div r13d
   557 000002B1 83C230                 add edx, 48
   558 000002B4 41889424[00000000]     mov byte [tmpString + r12], dl
   559 000002BC 49FFC4                 inc r12
   560 000002BF 83F800                 cmp eax, 0
   561 000002C2 75E7                   jne ..@10.toString
   562                                 
   563 000002C4 49FFCC                 dec r12
   564 000002C7 49C7C500000000         mov r13, 0
   565 000002CE 49C7C60F000000         mov r14, STR_LENGTH
   566 000002D5 41FECE                 dec r14b
   567 000002D8 4528E6                 sub r14b, r12b
   568                                 
   569                                 ..@10.insertWS:
   570 000002DB 41C685[00000000]20     mov byte [tmpString + r13], 32
   571 000002E3 41FEC5                 inc r13b
   572 000002E6 4538F5                 cmp r13b, r14b
   573 000002E9 75EE                   jne ..@10.insertWS
   574                                 
   575                                 ..@10.moveChars:
   576 000002EB 418A8424[00000000]     mov al, byte [tmpString + r12]
   577 000002F3 418885[00000000]       mov byte [tmpString + r13], al
   578 000002FA 49FFCC                 dec r12
   579 000002FD 49FFC5                 inc r13
   580 00000300 4983FC0F               cmp r12, STR_LENGTH
   581 00000304 75E3                   jne ..@10.moveChars
   582                                 
   583 00000306 41C685[00000000]00     mov byte[tmpString + r13], NULL
   584                                 
   585                                 %line 346+1 ast07.asm
   586 0000030E 50                      push rax
   587                                 %line 346+0 ast07.asm
   588 0000030F 57                      push rdi
   589 00000310 56                      push rsi
   590 00000311 52                      push rdx
   591 00000312 51                      push rcx
   592                                 
   593 00000313 48C7C200000000          mov rdx, 0
   594 0000031A 48C7C7[00000000]        mov rdi, tmpString
   595                                 ..@11.countLoop:
   596 00000321 803F00                  cmp byte [rdi], NULL
   597 00000324 7406                    je ..@11.countLoopDone
   598 00000326 48FFC7                  inc rdi
   599 00000329 48FFC2                  inc rdx
   600 0000032C EBF1                    jmp ..@11.countLoop
   601                                 ..@11.countLoopDone:
   602                                 
   603 0000032E 48C7C001000000          mov rax, SYS_write
   604 00000335 48C7C701000000          mov rdi, STDOUT
   605 0000033C 48C7C6[00000000]        mov rsi, tmpString
   606 00000343 0F05                    syscall
   607                                 
   608 00000345 59                      pop rcx
   609 00000346 5A                      pop rdx
   610 00000347 5E                      pop rsi
   611 00000348 5F                      pop rdi
   612 00000349 58                      pop rax
   613                                 %line 347+1 ast07.asm
   614 0000034A 50                      push rax
   615                                 %line 347+0 ast07.asm
   616 0000034B 57                      push rdi
   617 0000034C 56                      push rsi
   618 0000034D 52                      push rdx
   619 0000034E 51                      push rcx
   620                                 
   621 0000034F 48C7C200000000          mov rdx, 0
   622 00000356 48C7C7[00000000]        mov rdi, newLine
   623                                 ..@12.countLoop:
   624 0000035D 803F00                  cmp byte [rdi], NULL
   625 00000360 7406                    je ..@12.countLoopDone
   626 00000362 48FFC7                  inc rdi
   627 00000365 48FFC2                  inc rdx
   628 00000368 EBF1                    jmp ..@12.countLoop
   629                                 ..@12.countLoopDone:
   630                                 
   631 0000036A 48C7C001000000          mov rax, SYS_write
   632 00000371 48C7C701000000          mov rdi, STDOUT
   633 00000378 48C7C6[00000000]        mov rsi, newLine
   634 0000037F 0F05                    syscall
   635                                 
   636 00000381 59                      pop rcx
   637 00000382 5A                      pop rdx
   638 00000383 5E                      pop rsi
   639 00000384 5F                      pop rdi
   640 00000385 58                      pop rax
   641                                 %line 348+1 ast07.asm
   642                                 
   643 00000386 50                      push rax
   644                                 %line 349+0 ast07.asm
   645 00000387 57                      push rdi
   646 00000388 56                      push rsi
   647 00000389 52                      push rdx
   648 0000038A 51                      push rcx
   649                                 
   650 0000038B 48C7C200000000          mov rdx, 0
   651 00000392 48C7C7[00000000]        mov rdi, hdrMed
   652                                 ..@13.countLoop:
   653 00000399 803F00                  cmp byte [rdi], NULL
   654 0000039C 7406                    je ..@13.countLoopDone
   655 0000039E 48FFC7                  inc rdi
   656 000003A1 48FFC2                  inc rdx
   657 000003A4 EBF1                    jmp ..@13.countLoop
   658                                 ..@13.countLoopDone:
   659                                 
   660 000003A6 48C7C001000000          mov rax, SYS_write
   661 000003AD 48C7C701000000          mov rdi, STDOUT
   662 000003B4 48C7C6[00000000]        mov rsi, hdrMed
   663 000003BB 0F05                    syscall
   664                                 
   665 000003BD 59                      pop rcx
   666 000003BE 5A                      pop rdx
   667 000003BF 5E                      pop rsi
   668 000003C0 5F                      pop rdi
   669 000003C1 58                      pop rax
   670                                 %line 350+1 ast07.asm
   671                                 
   672                                 %line 350+0 ast07.asm
   673                                 
   674 000003C2 49C7C400000000         mov r12, 0
   675 000003C9 49C7C50A000000         mov r13, 10
   676 000003D0 8B0425[00000000]       mov eax, dword [med]
   677                                 ..@14.toString:
   678 000003D7 99                     cdq
   679 000003D8 41F7F5                 div r13d
   680 000003DB 83C230                 add edx, 48
   681 000003DE 41889424[00000000]     mov byte [tmpString + r12], dl
   682 000003E6 49FFC4                 inc r12
   683 000003E9 83F800                 cmp eax, 0
   684 000003EC 75E7                   jne ..@14.toString
   685                                 
   686 000003EE 49FFCC                 dec r12
   687 000003F1 49C7C500000000         mov r13, 0
   688 000003F8 49C7C60F000000         mov r14, STR_LENGTH
   689 000003FF 41FECE                 dec r14b
   690 00000402 4528E6                 sub r14b, r12b
   691                                 
   692                                 ..@14.insertWS:
   693 00000405 41C685[00000000]20     mov byte [tmpString + r13], 32
   694 0000040D 41FEC5                 inc r13b
   695 00000410 4538F5                 cmp r13b, r14b
   696 00000413 75EE                   jne ..@14.insertWS
   697                                 
   698                                 ..@14.moveChars:
   699 00000415 418A8424[00000000]     mov al, byte [tmpString + r12]
   700 0000041D 418885[00000000]       mov byte [tmpString + r13], al
   701 00000424 49FFCC                 dec r12
   702 00000427 49FFC5                 inc r13
   703 0000042A 4983FC0F               cmp r12, STR_LENGTH
   704 0000042E 75E3                   jne ..@14.moveChars
   705                                 
   706 00000430 41C685[00000000]00     mov byte[tmpString + r13], NULL
   707                                 
   708                                 %line 351+1 ast07.asm
   709 00000438 50                      push rax
   710                                 %line 351+0 ast07.asm
   711 00000439 57                      push rdi
   712 0000043A 56                      push rsi
   713 0000043B 52                      push rdx
   714 0000043C 51                      push rcx
   715                                 
   716 0000043D 48C7C200000000          mov rdx, 0
   717 00000444 48C7C7[00000000]        mov rdi, tmpString
   718                                 ..@15.countLoop:
   719 0000044B 803F00                  cmp byte [rdi], NULL
   720 0000044E 7406                    je ..@15.countLoopDone
   721 00000450 48FFC7                  inc rdi
   722 00000453 48FFC2                  inc rdx
   723 00000456 EBF1                    jmp ..@15.countLoop
   724                                 ..@15.countLoopDone:
   725                                 
   726 00000458 48C7C001000000          mov rax, SYS_write
   727 0000045F 48C7C701000000          mov rdi, STDOUT
   728 00000466 48C7C6[00000000]        mov rsi, tmpString
   729 0000046D 0F05                    syscall
   730                                 
   731 0000046F 59                      pop rcx
   732 00000470 5A                      pop rdx
   733 00000471 5E                      pop rsi
   734 00000472 5F                      pop rdi
   735 00000473 58                      pop rax
   736                                 %line 352+1 ast07.asm
   737 00000474 50                      push rax
   738                                 %line 352+0 ast07.asm
   739 00000475 57                      push rdi
   740 00000476 56                      push rsi
   741 00000477 52                      push rdx
   742 00000478 51                      push rcx
   743                                 
   744 00000479 48C7C200000000          mov rdx, 0
   745 00000480 48C7C7[00000000]        mov rdi, newLine
   746                                 ..@16.countLoop:
   747 00000487 803F00                  cmp byte [rdi], NULL
   748 0000048A 7406                    je ..@16.countLoopDone
   749 0000048C 48FFC7                  inc rdi
   750 0000048F 48FFC2                  inc rdx
   751 00000492 EBF1                    jmp ..@16.countLoop
   752                                 ..@16.countLoopDone:
   753                                 
   754 00000494 48C7C001000000          mov rax, SYS_write
   755 0000049B 48C7C701000000          mov rdi, STDOUT
   756 000004A2 48C7C6[00000000]        mov rsi, newLine
   757 000004A9 0F05                    syscall
   758                                 
   759 000004AB 59                      pop rcx
   760 000004AC 5A                      pop rdx
   761 000004AD 5E                      pop rsi
   762 000004AE 5F                      pop rdi
   763 000004AF 58                      pop rax
   764                                 %line 353+1 ast07.asm
   765                                 
   766 000004B0 50                      push rax
   767                                 %line 354+0 ast07.asm
   768 000004B1 57                      push rdi
   769 000004B2 56                      push rsi
   770 000004B3 52                      push rdx
   771 000004B4 51                      push rcx
   772                                 
   773 000004B5 48C7C200000000          mov rdx, 0
   774 000004BC 48C7C7[00000000]        mov rdi, hdrSum
   775                                 ..@17.countLoop:
   776 000004C3 803F00                  cmp byte [rdi], NULL
   777 000004C6 7406                    je ..@17.countLoopDone
   778 000004C8 48FFC7                  inc rdi
   779 000004CB 48FFC2                  inc rdx
   780 000004CE EBF1                    jmp ..@17.countLoop
   781                                 ..@17.countLoopDone:
   782                                 
   783 000004D0 48C7C001000000          mov rax, SYS_write
   784 000004D7 48C7C701000000          mov rdi, STDOUT
   785 000004DE 48C7C6[00000000]        mov rsi, hdrSum
   786 000004E5 0F05                    syscall
   787                                 
   788 000004E7 59                      pop rcx
   789 000004E8 5A                      pop rdx
   790 000004E9 5E                      pop rsi
   791 000004EA 5F                      pop rdi
   792 000004EB 58                      pop rax
   793                                 %line 355+1 ast07.asm
   794                                 
   795                                 %line 355+0 ast07.asm
   796                                 
   797 000004EC 49C7C400000000         mov r12, 0
   798 000004F3 49C7C50A000000         mov r13, 10
   799 000004FA 8B0425[00000000]       mov eax, dword [sum]
   800                                 ..@18.toString:
   801 00000501 99                     cdq
   802 00000502 41F7F5                 div r13d
   803 00000505 83C230                 add edx, 48
   804 00000508 41889424[00000000]     mov byte [tmpString + r12], dl
   805 00000510 49FFC4                 inc r12
   806 00000513 83F800                 cmp eax, 0
   807 00000516 75E7                   jne ..@18.toString
   808                                 
   809 00000518 49FFCC                 dec r12
   810 0000051B 49C7C500000000         mov r13, 0
   811 00000522 49C7C60F000000         mov r14, STR_LENGTH
   812 00000529 41FECE                 dec r14b
   813 0000052C 4528E6                 sub r14b, r12b
   814                                 
   815                                 ..@18.insertWS:
   816 0000052F 41C685[00000000]20     mov byte [tmpString + r13], 32
   817 00000537 41FEC5                 inc r13b
   818 0000053A 4538F5                 cmp r13b, r14b
   819 0000053D 75EE                   jne ..@18.insertWS
   820                                 
   821                                 ..@18.moveChars:
   822 0000053F 418A8424[00000000]     mov al, byte [tmpString + r12]
   823 00000547 418885[00000000]       mov byte [tmpString + r13], al
   824 0000054E 49FFCC                 dec r12
   825 00000551 49FFC5                 inc r13
   826 00000554 4983FC0F               cmp r12, STR_LENGTH
   827 00000558 75E3                   jne ..@18.moveChars
   828                                 
   829 0000055A 41C685[00000000]00     mov byte[tmpString + r13], NULL
   830                                 
   831                                 %line 356+1 ast07.asm
   832 00000562 50                      push rax
   833                                 %line 356+0 ast07.asm
   834 00000563 57                      push rdi
   835 00000564 56                      push rsi
   836 00000565 52                      push rdx
   837 00000566 51                      push rcx
   838                                 
   839 00000567 48C7C200000000          mov rdx, 0
   840 0000056E 48C7C7[00000000]        mov rdi, tmpString
   841                                 ..@19.countLoop:
   842 00000575 803F00                  cmp byte [rdi], NULL
   843 00000578 7406                    je ..@19.countLoopDone
   844 0000057A 48FFC7                  inc rdi
   845 0000057D 48FFC2                  inc rdx
   846 00000580 EBF1                    jmp ..@19.countLoop
   847                                 ..@19.countLoopDone:
   848                                 
   849 00000582 48C7C001000000          mov rax, SYS_write
   850 00000589 48C7C701000000          mov rdi, STDOUT
   851 00000590 48C7C6[00000000]        mov rsi, tmpString
   852 00000597 0F05                    syscall
   853                                 
   854 00000599 59                      pop rcx
   855 0000059A 5A                      pop rdx
   856 0000059B 5E                      pop rsi
   857 0000059C 5F                      pop rdi
   858 0000059D 58                      pop rax
   859                                 %line 357+1 ast07.asm
   860 0000059E 50                      push rax
   861                                 %line 357+0 ast07.asm
   862 0000059F 57                      push rdi
   863 000005A0 56                      push rsi
   864 000005A1 52                      push rdx
   865 000005A2 51                      push rcx
   866                                 
   867 000005A3 48C7C200000000          mov rdx, 0
   868 000005AA 48C7C7[00000000]        mov rdi, newLine
   869                                 ..@20.countLoop:
   870 000005B1 803F00                  cmp byte [rdi], NULL
   871 000005B4 7406                    je ..@20.countLoopDone
   872 000005B6 48FFC7                  inc rdi
   873 000005B9 48FFC2                  inc rdx
   874 000005BC EBF1                    jmp ..@20.countLoop
   875                                 ..@20.countLoopDone:
   876                                 
   877 000005BE 48C7C001000000          mov rax, SYS_write
   878 000005C5 48C7C701000000          mov rdi, STDOUT
   879 000005CC 48C7C6[00000000]        mov rsi, newLine
   880 000005D3 0F05                    syscall
   881                                 
   882 000005D5 59                      pop rcx
   883 000005D6 5A                      pop rdx
   884 000005D7 5E                      pop rsi
   885 000005D8 5F                      pop rdi
   886 000005D9 58                      pop rax
   887                                 %line 358+1 ast07.asm
   888                                 
   889 000005DA 50                      push rax
   890                                 %line 359+0 ast07.asm
   891 000005DB 57                      push rdi
   892 000005DC 56                      push rsi
   893 000005DD 52                      push rdx
   894 000005DE 51                      push rcx
   895                                 
   896 000005DF 48C7C200000000          mov rdx, 0
   897 000005E6 48C7C7[00000000]        mov rdi, hdrAve
   898                                 ..@21.countLoop:
   899 000005ED 803F00                  cmp byte [rdi], NULL
   900 000005F0 7406                    je ..@21.countLoopDone
   901 000005F2 48FFC7                  inc rdi
   902 000005F5 48FFC2                  inc rdx
   903 000005F8 EBF1                    jmp ..@21.countLoop
   904                                 ..@21.countLoopDone:
   905                                 
   906 000005FA 48C7C001000000          mov rax, SYS_write
   907 00000601 48C7C701000000          mov rdi, STDOUT
   908 00000608 48C7C6[00000000]        mov rsi, hdrAve
   909 0000060F 0F05                    syscall
   910                                 
   911 00000611 59                      pop rcx
   912 00000612 5A                      pop rdx
   913 00000613 5E                      pop rsi
   914 00000614 5F                      pop rdi
   915 00000615 58                      pop rax
   916                                 %line 360+1 ast07.asm
   917                                 
   918                                 %line 360+0 ast07.asm
   919                                 
   920 00000616 49C7C400000000         mov r12, 0
   921 0000061D 49C7C50A000000         mov r13, 10
   922 00000624 8B0425[00000000]       mov eax, dword [avg]
   923                                 ..@22.toString:
   924 0000062B 99                     cdq
   925 0000062C 41F7F5                 div r13d
   926 0000062F 83C230                 add edx, 48
   927 00000632 41889424[00000000]     mov byte [tmpString + r12], dl
   928 0000063A 49FFC4                 inc r12
   929 0000063D 83F800                 cmp eax, 0
   930 00000640 75E7                   jne ..@22.toString
   931                                 
   932 00000642 49FFCC                 dec r12
   933 00000645 49C7C500000000         mov r13, 0
   934 0000064C 49C7C60F000000         mov r14, STR_LENGTH
   935 00000653 41FECE                 dec r14b
   936 00000656 4528E6                 sub r14b, r12b
   937                                 
   938                                 ..@22.insertWS:
   939 00000659 41C685[00000000]20     mov byte [tmpString + r13], 32
   940 00000661 41FEC5                 inc r13b
   941 00000664 4538F5                 cmp r13b, r14b
   942 00000667 75EE                   jne ..@22.insertWS
   943                                 
   944                                 ..@22.moveChars:
   945 00000669 418A8424[00000000]     mov al, byte [tmpString + r12]
   946 00000671 418885[00000000]       mov byte [tmpString + r13], al
   947 00000678 49FFCC                 dec r12
   948 0000067B 49FFC5                 inc r13
   949 0000067E 4983FC0F               cmp r12, STR_LENGTH
   950 00000682 75E3                   jne ..@22.moveChars
   951                                 
   952 00000684 41C685[00000000]00     mov byte[tmpString + r13], NULL
   953                                 
   954                                 %line 361+1 ast07.asm
   955 0000068C 50                      push rax
   956                                 %line 361+0 ast07.asm
   957 0000068D 57                      push rdi
   958 0000068E 56                      push rsi
   959 0000068F 52                      push rdx
   960 00000690 51                      push rcx
   961                                 
   962 00000691 48C7C200000000          mov rdx, 0
   963 00000698 48C7C7[00000000]        mov rdi, tmpString
   964                                 ..@23.countLoop:
   965 0000069F 803F00                  cmp byte [rdi], NULL
   966 000006A2 7406                    je ..@23.countLoopDone
   967 000006A4 48FFC7                  inc rdi
   968 000006A7 48FFC2                  inc rdx
   969 000006AA EBF1                    jmp ..@23.countLoop
   970                                 ..@23.countLoopDone:
   971                                 
   972 000006AC 48C7C001000000          mov rax, SYS_write
   973 000006B3 48C7C701000000          mov rdi, STDOUT
   974 000006BA 48C7C6[00000000]        mov rsi, tmpString
   975 000006C1 0F05                    syscall
   976                                 
   977 000006C3 59                      pop rcx
   978 000006C4 5A                      pop rdx
   979 000006C5 5E                      pop rsi
   980 000006C6 5F                      pop rdi
   981 000006C7 58                      pop rax
   982                                 %line 362+1 ast07.asm
   983 000006C8 50                      push rax
   984                                 %line 362+0 ast07.asm
   985 000006C9 57                      push rdi
   986 000006CA 56                      push rsi
   987 000006CB 52                      push rdx
   988 000006CC 51                      push rcx
   989                                 
   990 000006CD 48C7C200000000          mov rdx, 0
   991 000006D4 48C7C7[00000000]        mov rdi, newLine
   992                                 ..@24.countLoop:
   993 000006DB 803F00                  cmp byte [rdi], NULL
   994 000006DE 7406                    je ..@24.countLoopDone
   995 000006E0 48FFC7                  inc rdi
   996 000006E3 48FFC2                  inc rdx
   997 000006E6 EBF1                    jmp ..@24.countLoop
   998                                 ..@24.countLoopDone:
   999                                 
  1000 000006E8 48C7C001000000          mov rax, SYS_write
  1001 000006EF 48C7C701000000          mov rdi, STDOUT
  1002 000006F6 48C7C6[00000000]        mov rsi, newLine
  1003 000006FD 0F05                    syscall
  1004                                 
  1005 000006FF 59                      pop rcx
  1006 00000700 5A                      pop rdx
  1007 00000701 5E                      pop rsi
  1008 00000702 5F                      pop rdi
  1009 00000703 58                      pop rax
  1010                                 %line 363+1 ast07.asm
  1011 00000704 50                      push rax
  1012                                 %line 363+0 ast07.asm
  1013 00000705 57                      push rdi
  1014 00000706 56                      push rsi
  1015 00000707 52                      push rdx
  1016 00000708 51                      push rcx
  1017                                 
  1018 00000709 48C7C200000000          mov rdx, 0
  1019 00000710 48C7C7[00000000]        mov rdi, newLine
  1020                                 ..@25.countLoop:
  1021 00000717 803F00                  cmp byte [rdi], NULL
  1022 0000071A 7406                    je ..@25.countLoopDone
  1023 0000071C 48FFC7                  inc rdi
  1024 0000071F 48FFC2                  inc rdx
  1025 00000722 EBF1                    jmp ..@25.countLoop
  1026                                 ..@25.countLoopDone:
  1027                                 
  1028 00000724 48C7C001000000          mov rax, SYS_write
  1029 0000072B 48C7C701000000          mov rdi, STDOUT
  1030 00000732 48C7C6[00000000]        mov rsi, newLine
  1031 00000739 0F05                    syscall
  1032                                 
  1033 0000073B 59                      pop rcx
  1034 0000073C 5A                      pop rdx
  1035 0000073D 5E                      pop rsi
  1036 0000073E 5F                      pop rdi
  1037 0000073F 58                      pop rax
  1038                                 %line 364+1 ast07.asm
  1039                                 
  1040                                 
  1041                                 
  1042                                 
  1043                                 last:
  1044 00000740 48C7C03C000000          mov rax, SYS_exit
  1045 00000747 48C7C700000000          mov rdi, EXIT_SUCCESS
  1046 0000074E 0F05                    syscall
  1047                                 
